; Function Attrs: nounwind uwtable
define hidden noundef zeroext i1 @_mi_os_protect(ptr noundef %0, i64 noundef %1) local_unnamed_addr #1 {
  %3 = icmp eq i64 %1, 0
  %4 = icmp eq ptr %0, null
  %or.cond.i.i.i = or i1 %4, %3
  br i1 %or.cond.i.i.i, label %mi_os_protectx.exit, label %5

5:                                                ; preds = %2
  %6 = load i64, ptr @mi_os_mem_config, align 8, !tbaa !12
  %7 = ptrtoint ptr %0 to i64
  %8 = tail call range(i64 0, 65) i64 @llvm.ctpop.i64(i64 %6)
  %9 = icmp samesign ult i64 %8, 2
  %10 = add i64 %7, -1
  %11 = add i64 %10, %6
  %12 = getelementptr inbounds nuw i8, ptr %0, i64 %1
  %13 = ptrtoint ptr %12 to i64
  br i1 %9, label %14, label %18

14:                                               ; preds = %5
  %15 = sub i64 0, %6
  %16 = and i64 %11, %15
  %17 = and i64 %15, %13
  br label %mi_align_down_ptr.exit27.i.i.i

18:                                               ; preds = %5
  %19 = urem i64 %11, %6
  %20 = sub nuw i64 %11, %19
  %21 = urem i64 %13, %6
  %22 = sub nuw i64 %13, %21
  br label %mi_align_down_ptr.exit27.i.i.i

mi_align_down_ptr.exit27.i.i.i:                   ; preds = %18, %14
  %.in.i.i.i = phi i64 [ %16, %14 ], [ %20, %18 ]
  %.in30.i.i.i = phi i64 [ %17, %14 ], [ %22, %18 ]
  %23 = sub i64 %.in30.i.i.i, %.in.i.i.i
  %24 = icmp slt i64 %23, 1
  br i1 %24, label %mi_os_protectx.exit, label %25

25:                                               ; preds = %mi_align_down_ptr.exit27.i.i.i
  %26 = inttoptr i64 %.in.i.i.i to ptr
  %27 = tail call i32 @_mi_prim_protect(ptr noundef %26, i64 noundef %23, i1 noundef zeroext true) #7
  %.not.i = icmp eq i32 %27, 0
  br i1 %.not.i, label %mi_os_protectx.exit, label %28

28:                                               ; preds = %25
  tail call void (ptr, ...) @_mi_warning_message(ptr noundef nonnull @.str.11, ptr noundef nonnull @.str.12, i32 noundef %27, i32 noundef %27, ptr noundef %26, i64 noundef %23) #7
  br label %mi_os_protectx.exit

mi_os_protectx.exit:                              ; preds = %2, %mi_align_down_ptr.exit27.i.i.i, %25, %28
  %.0.i = phi i1 [ false, %28 ], [ true, %25 ], [ false, %2 ], [ false, %mi_align_down_ptr.exit27.i.i.i ]
  ret i1 %.0.i
}